; Function Attrs: mustprogress uwtable
define void @_ZN6icu_775units14UnitsConverter4initERKNS0_15ConversionRatesER10UErrorCode(ptr noundef nonnull align 8 dereferenceable(520) %0, ptr noundef nonnull align 8 dereferenceable(88) %1, ptr noundef nonnull align 4 dereferenceable(4) %2) local_unnamed_addr #1 align 2 {
  %4 = load i32, ptr %2, align 4, !tbaa !13
  %5 = icmp slt i32 %4, 1
  br i1 %5, label %6, label %24

6:                                                ; preds = %3
  %7 = getelementptr inbounds nuw i8, ptr %0, i64 8
  %8 = getelementptr inbounds nuw i8, ptr %0, i64 16
  %9 = load i32, ptr %8, align 8, !tbaa !74
  %10 = icmp eq i32 %9, 2
  br i1 %10, label %15, label %11

11:                                               ; preds = %6
  %12 = getelementptr inbounds nuw i8, ptr %0, i64 184
  %13 = load i32, ptr %12, align 8, !tbaa !77
  %14 = icmp eq i32 %13, 2
  br i1 %14, label %15, label %16

15:                                               ; preds = %11, %6
  store i32 65804, ptr %2, align 4, !tbaa !13
  br label %24

16:                                               ; preds = %11
  %17 = tail call noundef i32 @_ZN6icu_775units21extractConvertibilityERKNS_15MeasureUnitImplES3_RKNS0_15ConversionRatesER10UErrorCode(ptr noundef nonnull align 8 dereferenceable(168) %8, ptr noundef nonnull align 8 dereferenceable(168) %12, ptr noundef nonnull align 8 dereferenceable(88) %1, ptr noundef nonnull align 4 dereferenceable(4) %2)
  %18 = load i32, ptr %2, align 4, !tbaa !13
  %19 = icmp slt i32 %18, 1
  br i1 %19, label %20, label %24

20:                                               ; preds = %16
  %21 = icmp eq i32 %17, 2
  br i1 %21, label %22, label %23

22:                                               ; preds = %20
  store i32 65804, ptr %2, align 4, !tbaa !13
  br label %24

23:                                               ; preds = %20
  tail call fastcc void @_ZN6icu_775units12_GLOBAL__N_118loadConversionRateERNS0_14ConversionRateERKNS_15MeasureUnitImplES6_NS0_14ConvertibilityERKNS0_15ConversionRatesER10UErrorCode(ptr noundef nonnull align 8 dereferenceable(505) %7, ptr noundef nonnull align 8 dereferenceable(168) %8, ptr noundef nonnull align 8 dereferenceable(168) %12, i32 noundef %17, ptr noundef nonnull align 8 dereferenceable(88) %1, ptr noundef nonnull align 4 dereferenceable(4) %2)
  br label %24

24:                                               ; preds = %22, %23, %16, %3, %15
  ret void
}